   1              		.syntax unified
   2              		.cpu cortex-m3
   3              		.fpu softvfp
   4              		.eabi_attribute 20, 1
   5              		.eabi_attribute 21, 1
   6              		.eabi_attribute 23, 3
   7              		.eabi_attribute 24, 1
   8              		.eabi_attribute 25, 1
   9              		.eabi_attribute 26, 1
  10              		.eabi_attribute 30, 6
  11              		.eabi_attribute 18, 4
  12              		.thumb
  13              		.file	"InterruptPacket.cpp"
  21              	.Ltext0:
  22              		.section	.text._ZN15InterruptPacketC2Ev,"ax",%progbits
  23              		.align	2
  24              		.global	_ZN15InterruptPacketC2Ev
  25              		.thumb
  26              		.thumb_func
  28              	_ZN15InterruptPacketC2Ev:
  29              	.LFB1:
  30              		.file 1 "usb/InterruptPacket.cpp"
   1:usb/InterruptPacket.cpp **** /*
   2:usb/InterruptPacket.cpp ****  * InterruptPacket.cpp
   3:usb/InterruptPacket.cpp ****  *
   4:usb/InterruptPacket.cpp ****  *  Created on: Oct 27, 2009
   5:usb/InterruptPacket.cpp ****  *      Author: fgervais
   6:usb/InterruptPacket.cpp ****  */
   7:usb/InterruptPacket.cpp **** 
   8:usb/InterruptPacket.cpp **** #include "InterruptPacket.h"
   9:usb/InterruptPacket.cpp **** 
  10:usb/InterruptPacket.cpp **** InterruptPacket::InterruptPacket() {
  31              		.loc 1 10 0
  32              		.cfi_startproc
  33              		@ args = 0, pretend = 0, frame = 8
  34              		@ frame_needed = 1, uses_anonymous_args = 0
  35              		@ link register save eliminated.
  36 0000 80B4     		push	{r7}
  37              	.LCFI0:
  38              		.cfi_def_cfa_offset 4
  39 0002 83B0     		sub	sp, sp, #12
  40              	.LCFI1:
  41              		.cfi_def_cfa_offset 16
  42 0004 00AF     		add	r7, sp, #0
  43              		.cfi_offset 7, -4
  44              	.LCFI2:
  45              		.cfi_def_cfa_register 7
  46 0006 7860     		str	r0, [r7, #4]
  47              		.loc 1 10 0
  48 0008 7B68     		ldr	r3, [r7, #4]
  49 000a 044A     		ldr	r2, .L4
  50 000c 1A60     		str	r2, [r3, #0]
  11:usb/InterruptPacket.cpp **** 
  12:usb/InterruptPacket.cpp **** }
  51              		.loc 1 12 0
  52 000e 7B68     		ldr	r3, [r7, #4]
  53 0010 1846     		mov	r0, r3
  54 0012 07F10C07 		add	r7, r7, #12
  55 0016 BD46     		mov	sp, r7
  56 0018 80BC     		pop	{r7}
  57 001a 7047     		bx	lr
  58              	.L5:
  59              		.align	2
  60              	.L4:
  61 001c 08000000 		.word	_ZTV15InterruptPacket+8
  62              		.cfi_endproc
  63              	.LFE1:
  65              		.section	.text._ZN15InterruptPacketC1Ev,"ax",%progbits
  66              		.align	2
  67              		.global	_ZN15InterruptPacketC1Ev
  68              		.thumb
  69              		.thumb_func
  71              	_ZN15InterruptPacketC1Ev:
  72              	.LFB2:
  73              		.loc 1 10 0
  74              		.cfi_startproc
  75              		@ args = 0, pretend = 0, frame = 8
  76              		@ frame_needed = 1, uses_anonymous_args = 0
  77              		@ link register save eliminated.
  78 0000 80B4     		push	{r7}
  79              	.LCFI3:
  80              		.cfi_def_cfa_offset 4
  81 0002 83B0     		sub	sp, sp, #12
  82              	.LCFI4:
  83              		.cfi_def_cfa_offset 16
  84 0004 00AF     		add	r7, sp, #0
  85              		.cfi_offset 7, -4
  86              	.LCFI5:
  87              		.cfi_def_cfa_register 7
  88 0006 7860     		str	r0, [r7, #4]
  89              		.loc 1 10 0
  90 0008 7B68     		ldr	r3, [r7, #4]
  91 000a 044A     		ldr	r2, .L9
  92 000c 1A60     		str	r2, [r3, #0]
  93              		.loc 1 12 0
  94 000e 7B68     		ldr	r3, [r7, #4]
  95 0010 1846     		mov	r0, r3
  96 0012 07F10C07 		add	r7, r7, #12
  97 0016 BD46     		mov	sp, r7
  98 0018 80BC     		pop	{r7}
  99 001a 7047     		bx	lr
 100              	.L10:
 101              		.align	2
 102              	.L9:
 103 001c 08000000 		.word	_ZTV15InterruptPacket+8
 104              		.cfi_endproc
 105              	.LFE2:
 107              		.section	.text._ZN15InterruptPacketD2Ev,"ax",%progbits
 108              		.align	2
 109              		.global	_ZN15InterruptPacketD2Ev
 110              		.thumb
 111              		.thumb_func
 113              	_ZN15InterruptPacketD2Ev:
 114              	.LFB4:
  13:usb/InterruptPacket.cpp **** 
  14:usb/InterruptPacket.cpp **** InterruptPacket::~InterruptPacket() {
 115              		.loc 1 14 0
 116              		.cfi_startproc
 117              		@ args = 0, pretend = 0, frame = 8
 118              		@ frame_needed = 1, uses_anonymous_args = 0
 119 0000 80B5     		push	{r7, lr}
 120              	.LCFI6:
 121              		.cfi_def_cfa_offset 8
 122 0002 82B0     		sub	sp, sp, #8
 123              	.LCFI7:
 124              		.cfi_def_cfa_offset 16
 125 0004 00AF     		add	r7, sp, #0
 126              		.cfi_offset 14, -4
 127              		.cfi_offset 7, -8
 128              	.LCFI8:
 129              		.cfi_def_cfa_register 7
 130 0006 7860     		str	r0, [r7, #4]
 131              		.loc 1 14 0
 132 0008 7B68     		ldr	r3, [r7, #4]
 133 000a 084A     		ldr	r2, .L15
 134 000c 1A60     		str	r2, [r3, #0]
  15:usb/InterruptPacket.cpp **** 
  16:usb/InterruptPacket.cpp **** }
 135              		.loc 1 16 0
 136 000e 4FF00003 		mov	r3, #0
 137 0012 DBB2     		uxtb	r3, r3
 138 0014 002B     		cmp	r3, #0
 139 0016 02D0     		beq	.L13
 140 0018 7868     		ldr	r0, [r7, #4]
 141 001a FFF7FEFF 		bl	_ZdlPv
 142              	.L13:
 143 001e 7B68     		ldr	r3, [r7, #4]
 144 0020 1846     		mov	r0, r3
 145 0022 07F10807 		add	r7, r7, #8
 146 0026 BD46     		mov	sp, r7
 147 0028 80BD     		pop	{r7, pc}
 148              	.L16:
 149 002a C046     		.align	2
 150              	.L15:
 151 002c 08000000 		.word	_ZTV15InterruptPacket+8
 152              		.cfi_endproc
 153              	.LFE4:
 155              		.section	.text._ZN15InterruptPacketD1Ev,"ax",%progbits
 156              		.align	2
 157              		.global	_ZN15InterruptPacketD1Ev
 158              		.thumb
 159              		.thumb_func
 161              	_ZN15InterruptPacketD1Ev:
 162              	.LFB5:
 163              		.loc 1 14 0
 164              		.cfi_startproc
 165              		@ args = 0, pretend = 0, frame = 8
 166              		@ frame_needed = 1, uses_anonymous_args = 0
 167 0000 80B5     		push	{r7, lr}
 168              	.LCFI9:
 169              		.cfi_def_cfa_offset 8
 170 0002 82B0     		sub	sp, sp, #8
 171              	.LCFI10:
 172              		.cfi_def_cfa_offset 16
 173 0004 00AF     		add	r7, sp, #0
 174              		.cfi_offset 14, -4
 175              		.cfi_offset 7, -8
 176              	.LCFI11:
 177              		.cfi_def_cfa_register 7
 178 0006 7860     		str	r0, [r7, #4]
 179              		.loc 1 14 0
 180 0008 7B68     		ldr	r3, [r7, #4]
 181 000a 084A     		ldr	r2, .L21
 182 000c 1A60     		str	r2, [r3, #0]
 183              		.loc 1 16 0
 184 000e 4FF00003 		mov	r3, #0
 185 0012 DBB2     		uxtb	r3, r3
 186 0014 002B     		cmp	r3, #0
 187 0016 02D0     		beq	.L19
 188 0018 7868     		ldr	r0, [r7, #4]
 189 001a FFF7FEFF 		bl	_ZdlPv
 190              	.L19:
 191 001e 7B68     		ldr	r3, [r7, #4]
 192 0020 1846     		mov	r0, r3
 193 0022 07F10807 		add	r7, r7, #8
 194 0026 BD46     		mov	sp, r7
 195 0028 80BD     		pop	{r7, pc}
 196              	.L22:
 197 002a C046     		.align	2
 198              	.L21:
 199 002c 08000000 		.word	_ZTV15InterruptPacket+8
 200              		.cfi_endproc
 201              	.LFE5:
 203              		.section	.text._ZN15InterruptPacketD0Ev,"ax",%progbits
 204              		.align	2
 205              		.global	_ZN15InterruptPacketD0Ev
 206              		.thumb
 207              		.thumb_func
 209              	_ZN15InterruptPacketD0Ev:
 210              	.LFB6:
 211              		.loc 1 14 0
 212              		.cfi_startproc
 213              		@ args = 0, pretend = 0, frame = 8
 214              		@ frame_needed = 1, uses_anonymous_args = 0
 215 0000 80B5     		push	{r7, lr}
 216              	.LCFI12:
 217              		.cfi_def_cfa_offset 8
 218 0002 82B0     		sub	sp, sp, #8
 219              	.LCFI13:
 220              		.cfi_def_cfa_offset 16
 221 0004 00AF     		add	r7, sp, #0
 222              		.cfi_offset 14, -4
 223              		.cfi_offset 7, -8
 224              	.LCFI14:
 225              		.cfi_def_cfa_register 7
 226 0006 7860     		str	r0, [r7, #4]
 227              		.loc 1 14 0
 228 0008 7B68     		ldr	r3, [r7, #4]
 229 000a 084A     		ldr	r2, .L27
 230 000c 1A60     		str	r2, [r3, #0]
 231              		.loc 1 16 0
 232 000e 4FF00103 		mov	r3, #1
 233 0012 DBB2     		uxtb	r3, r3
 234 0014 002B     		cmp	r3, #0
 235 0016 02D0     		beq	.L25
 236 0018 7868     		ldr	r0, [r7, #4]
 237 001a FFF7FEFF 		bl	_ZdlPv
 238              	.L25:
 239 001e 7B68     		ldr	r3, [r7, #4]
 240 0020 1846     		mov	r0, r3
 241 0022 07F10807 		add	r7, r7, #8
 242 0026 BD46     		mov	sp, r7
 243 0028 80BD     		pop	{r7, pc}
 244              	.L28:
 245 002a C046     		.align	2
 246              	.L27:
 247 002c 08000000 		.word	_ZTV15InterruptPacket+8
 248              		.cfi_endproc
 249              	.LFE6:
 251              		.global	_ZTV15InterruptPacket
 252              		.section	.rodata._ZTV15InterruptPacket,"a",%progbits
 253              		.align	3
 256              	_ZTV15InterruptPacket:
 257 0000 00000000 		.word	0
 258 0004 00000000 		.word	0
 259 0008 00000000 		.word	_ZN15InterruptPacketD1Ev
 260 000c 00000000 		.word	_ZN15InterruptPacketD0Ev
 261              		.text
 262              	.Letext0: